target datalayout = "e-m:e-p270:32:32-p271:32:32-p272:64:64-i64:64-i128:128-f80:128-n8:16:32:64-S128"
target triple = "x86_64-pc-linux-gnu"

%struct.H5D_chunk_rec_t = type { [33 x i64], i32, i32, i64 }

@.str.2 = private unnamed_addr constant [103 x i8] c"generated/home/dtcxzyw/WorkSpace/Projects/compilers/llvm-opt-benchmark/bench/hdf5/hdf5/src/H5Dbtree2.c\00", align 1
@H5E_DATASET_g = external global i64, align 8
@__func__.H5D__bt2_remove_cb = private unnamed_addr constant [19 x i8] c"H5D__bt2_remove_cb\00", align 1
@H5E_CANTFREE_g = external global i64, align 8
@.str.36 = private unnamed_addr constant [21 x i8] c"unable to free chunk\00", align 1

; Function Attrs: nounwind uwtable
define internal i32 @H5D__bt2_remove_cb(ptr noundef %0, ptr noundef %1) #0 {
  %3 = alloca ptr, align 8
  %4 = alloca ptr, align 8
  %5 = alloca ptr, align 8
  %6 = alloca ptr, align 8
  %7 = alloca i32, align 4
  %8 = alloca i8, align 1
  store ptr %0, ptr %3, align 8
  store ptr %1, ptr %4, align 8
  %9 = load ptr, ptr %3, align 8
  store ptr %9, ptr %5, align 8
  %10 = load ptr, ptr %4, align 8
  store ptr %10, ptr %6, align 8
  store i32 0, ptr %7, align 4
  store i8 0, ptr %8, align 1
  %11 = load ptr, ptr %6, align 8
  %12 = load ptr, ptr %5, align 8
  %13 = getelementptr inbounds %struct.H5D_chunk_rec_t, ptr %12, i32 0, i32 3
  %14 = load i64, ptr %13, align 8
  %15 = load ptr, ptr %5, align 8
  %16 = getelementptr inbounds %struct.H5D_chunk_rec_t, ptr %15, i32 0, i32 1
  %17 = load i32, ptr %16, align 8
  %18 = zext i32 %17 to i64
  %19 = call i32 @H5MF_xfree(ptr noundef %11, i32 noundef 3, i64 noundef %14, i64 noundef %18)
  %20 = icmp slt i32 %19, 0
  br i1 %20, label %21, label %36

21:                                               ; preds = %2
  br label %22

22:                                               ; preds = %21
  br label %23

23:                                               ; preds = %22
  br label %24

24:                                               ; preds = %23
  %25 = load i64, ptr @H5E_DATASET_g, align 8
  %26 = load i64, ptr @H5E_CANTFREE_g, align 8
  %27 = call i32 (ptr, ptr, i32, i64, i64, ptr, ...) @H5E_printf_stack(ptr noundef @.str.2, ptr noundef @__func__.H5D__bt2_remove_cb, i32 noundef 1228, i64 noundef %25, i64 noundef %26, ptr noundef @.str.36)
  br label %28

28:                                               ; preds = %24
  store i8 1, ptr %8, align 1
  %29 = load i8, ptr %8, align 1
  %30 = trunc i8 %29 to i1
  %31 = zext i1 %30 to i8
  store i8 %31, ptr %8, align 1
  br label %32

32:                                               ; preds = %28
  br label %33

33:                                               ; preds = %32
  store i32 -1, ptr %7, align 4
  br label %37

34:                                               ; No predecessors!
  br label %35

35:                                               ; preds = %34
  br label %36

36:                                               ; preds = %35, %2
  br label %37

37:                                               ; preds = %36, %33
  %38 = load i32, ptr %7, align 4
  ret i32 %38
}