; Function Attrs: nounwind uwtable
define internal range(i32 -1, 1) i32 @H5D__bt2_remove_cb(ptr nocapture noundef readonly %0, ptr noundef %1) #1 {
  %3 = getelementptr inbounds i8, ptr %0, i64 272
  %4 = load i64, ptr %3, align 8
  %5 = getelementptr inbounds i8, ptr %0, i64 264
  %6 = load i32, ptr %5, align 8
  %7 = zext i32 %6 to i64
  %8 = tail call i32 @H5MF_xfree(ptr noundef %1, i32 noundef 3, i64 noundef %4, i64 noundef %7) #14
  %9 = icmp slt i32 %8, 0
  br i1 %9, label %10, label %14

10:                                               ; preds = %2
  %11 = load i64, ptr @H5E_DATASET_g, align 8
  %12 = load i64, ptr @H5E_CANTFREE_g, align 8
  %13 = tail call i32 (ptr, ptr, i32, i64, i64, ptr, ...) @H5E_printf_stack(ptr noundef nonnull @.str.2, ptr noundef nonnull @__func__.H5D__bt2_remove_cb, i32 noundef 1228, i64 noundef %11, i64 noundef %12, ptr noundef nonnull @.str.36) #14
  br label %14

14:                                               ; preds = %2, %10
  %.0 = phi i32 [ -1, %10 ], [ 0, %2 ]
  ret i32 %.0
}